; Function Attrs: mustprogress nofree norecurse nosync nounwind willreturn memory(none) uwtable
define hidden i64 @je_reg_size_compute(i32 noundef %0, i32 noundef %1, i32 noundef %2) local_unnamed_addr #0 {
  %4 = zext nneg i32 %0 to i64
  %5 = shl nuw i64 1, %4
  %6 = sext i32 %2 to i64
  %7 = zext nneg i32 %1 to i64
  %8 = shl i64 %6, %7
  %9 = add i64 %8, %5
  ret i64 %9
}